((lp1
S' '
aS'e'
aS't'
aS'o'
aS'a'
aS'n'
aS's'
aS'r'
aS'i'
aS'h'
aS'l'
aS'd'
aS'c'
aS'u'
aS'm'
aS'w'
aS'g'
aS'f'
aS'y'
aS'p'
aS'b'
aS'.'
aS'v'
aS','
aS'k'
aS"'"
aS'A'
aS'\n'
aS'\t'
aS'I'
aS'T'
aS'-'
aS'j'
aS'W'
aS'x'
aS'S'
aS'C'
aS'B'
aS'M'
aS'R'
aS'H'
aS'O'
aS'N'
aS'D'
aS'F'
aS'P'
aS'q'
aS'E'
aS';'
aS'L'
aS':'
aS'G'
aS'z'
aS'U'
aS'Y'
aS'$'
aS'J'
aS'?'
aS'%'
aS'V'
aS'K'
aS'Q'
aS')'
aS'('
aS'!'
aS'Z'
aS'&'
aS'X'
a(dp2
S'\t'
I28
sS'\n'
I27
sS'!'
I64
sS' '
I0
sS'%'
I58
sS'$'
I55
sS"'"
I25
sS'&'
I66
sS')'
I62
sS'('
I63
sS'-'
I31
sS','
I23
sS'.'
I21
sS';'
I48
sS':'
I50
sS'?'
I57
sS'A'
I26
sS'C'
I36
sS'B'
I37
sS'E'
I47
sS'D'
I43
sS'G'
I51
sS'F'
I44
sS'I'
I29
sS'H'
I40
sS'K'
I60
sS'J'
I56
sS'M'
I38
sS'L'
I49
sS'O'
I41
sS'N'
I42
sS'Q'
I61
sS'P'
I45
sS'S'
I35
sS'R'
I39
sS'U'
I53
sS'T'
I30
sS'W'
I33
sS'V'
I59
sS'Y'
I54
sS'X'
I67
sS'Z'
I65
sS'a'
I4
sS'c'
I12
sS'b'
I20
sS'e'
I1
sS'd'
I11
sS'g'
I16
sS'f'
I17
sS'i'
I8
sS'h'
I9
sS'k'
I24
sS'j'
I32
sS'm'
I14
sS'l'
I10
sS'o'
I3
sS'n'
I5
sS'q'
I46
sS'p'
I19
sS's'
I6
sS'r'
I7
sS'u'
I13
sS't'
I2
sS'w'
I15
sS'v'
I22
sS'y'
I18
sS'x'
I34
sS'z'
I52
st.