ccopy_reg
_reconstructor
p1
(cargparse
Namespace
p2
c__builtin__
object
p3
NtRp4
(dp5
S'num_epochs'
p6
I50
sS'grad_clip'
p7
F5
sS'rnn_size'
p8
I300
sS'reprocess'
p9
I0
sS'data_dir'
p10
S'data'
p11
sS'vocab_size'
p12
I68
sS'learning_rate'
p13
F0.002
sS'save_dir'
p14
S'save'
p15
sS'batch_size'
p16
I50
sS'decay_rate'
p17
F0.96999999999999997
sS'seq_length'
p18
I50
sS'num_layers'
p19
I3
sS'model'
p20
S'lstm'
p21
sS'save_every'
p22
I1000
sb.